target datalayout = "e-m:e-p270:32:32-p271:32:32-p272:64:64-i64:64-i128:128-f80:128-n8:16:32:64-S128"
target triple = "x86_64-pc-linux-gnu"

%struct.Parser = type { ptr, ptr, i32, i32, i32, ptr, ptr, ptr, i32, i32, ptr, i32, ptr, i32, i32, i32, i32, i32, %struct.growable_comment_array, ptr, i32, i32, i32 }
%struct.growable_comment_array = type { ptr, i64, i64 }
%struct.Token = type { i32, ptr, i32, i32, i32, i32, i32, ptr, ptr }

; Function Attrs: nounwind uwtable
define hidden ptr @_PyPegen_expect_token(ptr noundef %0, i32 noundef %1) #0 {
  %3 = alloca ptr, align 8
  %4 = alloca ptr, align 8
  %5 = alloca i32, align 4
  %6 = alloca ptr, align 8
  %7 = alloca i32, align 4
  store ptr %0, ptr %4, align 8, !tbaa !4
  store i32 %1, ptr %5, align 4, !tbaa !18
  %8 = load ptr, ptr %4, align 8, !tbaa !4
  %9 = getelementptr inbounds nuw %struct.Parser, ptr %8, i32 0, i32 2
  %10 = load i32, ptr %9, align 8, !tbaa !38
  %11 = load ptr, ptr %4, align 8, !tbaa !4
  %12 = getelementptr inbounds nuw %struct.Parser, ptr %11, i32 0, i32 3
  %13 = load i32, ptr %12, align 4, !tbaa !59
  %14 = icmp eq i32 %10, %13
  br i1 %14, label %15, label %23

15:                                               ; preds = %2
  %16 = load ptr, ptr %4, align 8, !tbaa !4
  %17 = call i32 @_PyPegen_fill_token(ptr noundef %16)
  %18 = icmp slt i32 %17, 0
  br i1 %18, label %19, label %22

19:                                               ; preds = %15
  %20 = load ptr, ptr %4, align 8, !tbaa !4
  %21 = getelementptr inbounds nuw %struct.Parser, ptr %20, i32 0, i32 15
  store i32 1, ptr %21, align 8, !tbaa !86
  store ptr null, ptr %3, align 8
  br label %46

22:                                               ; preds = %15
  br label %23

23:                                               ; preds = %22, %2
  call void @llvm.lifetime.start.p0(i64 8, ptr %6) #10
  %24 = load ptr, ptr %4, align 8, !tbaa !4
  %25 = getelementptr inbounds nuw %struct.Parser, ptr %24, i32 0, i32 1
  %26 = load ptr, ptr %25, align 8, !tbaa !40
  %27 = load ptr, ptr %4, align 8, !tbaa !4
  %28 = getelementptr inbounds nuw %struct.Parser, ptr %27, i32 0, i32 2
  %29 = load i32, ptr %28, align 8, !tbaa !38
  %30 = sext i32 %29 to i64
  %31 = getelementptr ptr, ptr %26, i64 %30
  %32 = load ptr, ptr %31, align 8, !tbaa !4
  store ptr %32, ptr %6, align 8, !tbaa !4
  %33 = load ptr, ptr %6, align 8, !tbaa !4
  %34 = getelementptr inbounds nuw %struct.Token, ptr %33, i32 0, i32 0
  %35 = load i32, ptr %34, align 8, !tbaa !70
  %36 = load i32, ptr %5, align 4, !tbaa !18
  %37 = icmp ne i32 %35, %36
  br i1 %37, label %38, label %39

38:                                               ; preds = %23
  store ptr null, ptr %3, align 8
  store i32 1, ptr %7, align 4
  br label %45

39:                                               ; preds = %23
  %40 = load ptr, ptr %4, align 8, !tbaa !4
  %41 = getelementptr inbounds nuw %struct.Parser, ptr %40, i32 0, i32 2
  %42 = load i32, ptr %41, align 8, !tbaa !38
  %43 = add i32 %42, 1
  store i32 %43, ptr %41, align 8, !tbaa !38
  %44 = load ptr, ptr %6, align 8, !tbaa !4
  store ptr %44, ptr %3, align 8
  store i32 1, ptr %7, align 4
  br label %45

45:                                               ; preds = %39, %38
  call void @llvm.lifetime.end.p0(i64 8, ptr %6) #10
  br label %46

46:                                               ; preds = %45, %19
  %47 = load ptr, ptr %3, align 8
  ret ptr %47
}

; Function Attrs: nounwind uwtable
define hidden ptr @_PyPegen_string_token(ptr noundef %0) #0 {
  %2 = alloca ptr, align 8
  store ptr %0, ptr %2, align 8, !tbaa !4
  %3 = load ptr, ptr %2, align 8, !tbaa !4
  %4 = call ptr @_PyPegen_expect_token(ptr noundef %3, i32 noundef 3)
  ret ptr %4
}