; Function Attrs: nounwind uwtable
define hidden noundef ptr @_PyPegen_string_token(ptr noundef %0) local_unnamed_addr #1 {
  %2 = getelementptr inbounds nuw i8, ptr %0, i64 16
  %3 = load i32, ptr %2, align 8, !tbaa !33
  %4 = getelementptr inbounds nuw i8, ptr %0, i64 20
  %5 = load i32, ptr %4, align 4, !tbaa !62
  %6 = icmp eq i32 %3, %5
  br i1 %6, label %7, label %12

7:                                                ; preds = %1
  %8 = tail call i32 @_PyPegen_fill_token(ptr noundef nonnull %0)
  %9 = icmp slt i32 %8, 0
  br i1 %9, label %10, label %._crit_edge.i

._crit_edge.i:                                    ; preds = %7
  %.pre.i = load i32, ptr %2, align 8, !tbaa !33
  br label %12

10:                                               ; preds = %7
  %11 = getelementptr inbounds nuw i8, ptr %0, i64 96
  store i32 1, ptr %11, align 8, !tbaa !87
  br label %_PyPegen_expect_token.exit

12:                                               ; preds = %._crit_edge.i, %1
  %13 = phi i32 [ %.pre.i, %._crit_edge.i ], [ %3, %1 ]
  %14 = getelementptr inbounds nuw i8, ptr %0, i64 8
  %15 = load ptr, ptr %14, align 8, !tbaa !35
  %16 = sext i32 %13 to i64
  %17 = getelementptr ptr, ptr %15, i64 %16
  %18 = load ptr, ptr %17, align 8, !tbaa !36
  %19 = load i32, ptr %18, align 8, !tbaa !71
  %.not.i = icmp eq i32 %19, 3
  br i1 %.not.i, label %20, label %_PyPegen_expect_token.exit

20:                                               ; preds = %12
  %21 = add i32 %13, 1
  store i32 %21, ptr %2, align 8, !tbaa !33
  br label %_PyPegen_expect_token.exit

_PyPegen_expect_token.exit:                       ; preds = %10, %12, %20
  %.0.i = phi ptr [ null, %10 ], [ %18, %20 ], [ null, %12 ]
  ret ptr %.0.i
}